target datalayout = "e-m:e-p270:32:32-p271:32:32-p272:64:64-i64:64-i128:128-f80:128-n8:16:32:64-S128"
target triple = "x86_64-pc-linux-gnu"

@.str.12 = private unnamed_addr constant [11 x i8] c"4varfs.txt\00", align 1
@.str.13 = private unnamed_addr constant [2 x i8] c"w\00", align 1
@.str.14 = private unnamed_addr constant [12 x i8] c"read_truth \00", align 1
@.str.15 = private unnamed_addr constant [38 x i8] c"; clp; st; w 1.blif; map; cec 1.blif\0A\00", align 1

; Function Attrs: nounwind uwtable
define void @Abc_NtkPrint256() #0 {
  %1 = alloca ptr, align 8
  %2 = alloca i32, align 4
  %3 = call noalias ptr @fopen(ptr noundef @.str.12, ptr noundef @.str.13)
  store ptr %3, ptr %1, align 8
  store i32 1, ptr %2, align 4
  br label %4

4:                                                ; preds = %13, %0
  %5 = load i32, ptr %2, align 4
  %6 = icmp ult i32 %5, 65535
  br i1 %6, label %7, label %16

7:                                                ; preds = %4
  %8 = load ptr, ptr %1, align 8
  %9 = call i32 (ptr, ptr, ...) @fprintf(ptr noundef %8, ptr noundef @.str.14) #11
  %10 = load ptr, ptr %1, align 8
  call void @Extra_PrintBinary(ptr noundef %10, ptr noundef %2, i32 noundef 16)
  %11 = load ptr, ptr %1, align 8
  %12 = call i32 (ptr, ptr, ...) @fprintf(ptr noundef %11, ptr noundef @.str.15) #11
  br label %13

13:                                               ; preds = %7
  %14 = load i32, ptr %2, align 4
  %15 = add i32 %14, 1
  store i32 %15, ptr %2, align 4
  br label %4, !llvm.loop !91

16:                                               ; preds = %4
  %17 = load ptr, ptr %1, align 8
  %18 = call i32 @fclose(ptr noundef %17)
  ret void
}