; Function Attrs: nounwind uwtable
define void @Abc_NtkPrint256() local_unnamed_addr #0 {
  %1 = alloca i32, align 4
  %2 = tail call noalias ptr @fopen(ptr noundef nonnull @.str.12, ptr noundef nonnull @.str.13)
  store i32 1, ptr %1, align 4
  br label %3

3:                                                ; preds = %0, %3
  %4 = call i64 @fwrite(ptr nonnull @.str.14, i64 11, i64 1, ptr %2)
  call void @Extra_PrintBinary(ptr noundef %2, ptr noundef nonnull %1, i32 noundef 16) #28
  %5 = call i64 @fwrite(ptr nonnull @.str.15, i64 37, i64 1, ptr %2)
  %6 = load i32, ptr %1, align 4
  %7 = add i32 %6, 1
  store i32 %7, ptr %1, align 4
  %8 = icmp ult i32 %7, 65535
  br i1 %8, label %3, label %9, !llvm.loop !88

9:                                                ; preds = %3
  %10 = call i32 @fclose(ptr noundef %2)
  ret void
}